; Function Attrs: mustprogress nounwind uwtable
define internal void @_ZNK12_GLOBAL__N_112ExprArgument10writeValueERN4llvm11raw_ostreamE(ptr noundef nonnull align 8 dereferenceable(128) %0, ptr noundef nonnull align 8 dereferenceable(48) %1) unnamed_addr #0 align 2 {
  %3 = getelementptr inbounds nuw i8, ptr %1, i64 24
  %4 = load ptr, ptr %3, align 8
  %5 = getelementptr inbounds nuw i8, ptr %1, i64 32
  %6 = load ptr, ptr %5, align 8
  %7 = ptrtoint ptr %4 to i64
  %8 = ptrtoint ptr %6 to i64
  %9 = sub i64 %7, %8
  %10 = icmp ult i64 %9, 3
  br i1 %10, label %11, label %13

11:                                               ; preds = %2
  %12 = tail call noundef nonnull align 8 dereferenceable(48) ptr @_ZN4llvm11raw_ostream5writeEPKcm(ptr noundef nonnull align 8 dereferenceable(48) %1, ptr noundef nonnull @.str.439, i64 noundef 3) #22
  %.pre = load ptr, ptr %5, align 8
  br label %_ZN4llvm11raw_ostreamlsEPKc.exit

13:                                               ; preds = %2
  tail call void @llvm.memcpy.p0.p0.i64(ptr noundef nonnull align 1 dereferenceable(3) %6, ptr noundef nonnull align 1 dereferenceable(3) @.str.439, i64 3, i1 false)
  %14 = load ptr, ptr %5, align 8
  %15 = getelementptr inbounds i8, ptr %14, i64 3
  store ptr %15, ptr %5, align 8
  br label %_ZN4llvm11raw_ostreamlsEPKc.exit

_ZN4llvm11raw_ostreamlsEPKc.exit:                 ; preds = %11, %13
  %16 = phi ptr [ %.pre, %11 ], [ %15, %13 ]
  %17 = load ptr, ptr %3, align 8
  %18 = ptrtoint ptr %17 to i64
  %19 = ptrtoint ptr %16 to i64
  %20 = sub i64 %18, %19
  %21 = icmp ult i64 %20, 7
  br i1 %21, label %22, label %24

22:                                               ; preds = %_ZN4llvm11raw_ostreamlsEPKc.exit
  %23 = tail call noundef nonnull align 8 dereferenceable(48) ptr @_ZN4llvm11raw_ostream5writeEPKcm(ptr noundef nonnull align 8 dereferenceable(48) %1, ptr noundef nonnull @.str.745, i64 noundef 7) #22
  br label %_ZN4llvm11raw_ostreamlsEPKc.exit6

24:                                               ; preds = %_ZN4llvm11raw_ostreamlsEPKc.exit
  tail call void @llvm.memcpy.p0.p0.i64(ptr noundef nonnull align 1 dereferenceable(7) %16, ptr noundef nonnull align 1 dereferenceable(7) @.str.745, i64 7, i1 false)
  %25 = load ptr, ptr %5, align 8
  %26 = getelementptr inbounds i8, ptr %25, i64 7
  store ptr %26, ptr %5, align 8
  br label %_ZN4llvm11raw_ostreamlsEPKc.exit6

_ZN4llvm11raw_ostreamlsEPKc.exit6:                ; preds = %22, %24
  %.0.i.i5 = phi ptr [ %23, %22 ], [ %1, %24 ]
  %27 = getelementptr inbounds nuw i8, ptr %0, i64 40
  %28 = tail call noundef ptr @_ZNKSt7__cxx1112basic_stringIcSt11char_traitsIcESaIcEE4dataEv(ptr noundef nonnull align 8 dereferenceable(32) %27) #22
  %29 = tail call noundef i64 @_ZNKSt7__cxx1112basic_stringIcSt11char_traitsIcESaIcEE6lengthEv(ptr noundef nonnull align 8 dereferenceable(32) %27) #22
  %30 = getelementptr inbounds nuw i8, ptr %.0.i.i5, i64 24
  %31 = load ptr, ptr %30, align 8
  %32 = getelementptr inbounds nuw i8, ptr %.0.i.i5, i64 32
  %33 = load ptr, ptr %32, align 8
  %34 = ptrtoint ptr %31 to i64
  %35 = ptrtoint ptr %33 to i64
  %36 = sub i64 %34, %35
  %37 = icmp ugt i64 %29, %36
  br i1 %37, label %38, label %40

38:                                               ; preds = %_ZN4llvm11raw_ostreamlsEPKc.exit6
  %39 = tail call noundef nonnull align 8 dereferenceable(48) ptr @_ZN4llvm11raw_ostream5writeEPKcm(ptr noundef nonnull align 8 dereferenceable(48) %.0.i.i5, ptr noundef %28, i64 noundef %29) #22
  %.phi.trans.insert = getelementptr inbounds nuw i8, ptr %39, i64 32
  %.pre13 = load ptr, ptr %.phi.trans.insert, align 8
  br label %_ZN4llvm11raw_ostreamlsENS_9StringRefE.exit

40:                                               ; preds = %_ZN4llvm11raw_ostreamlsEPKc.exit6
  %.not.i = icmp eq i64 %29, 0
  br i1 %.not.i, label %_ZN4llvm11raw_ostreamlsENS_9StringRefE.exit, label %41

41:                                               ; preds = %40
  tail call void @llvm.memcpy.p0.p0.i64(ptr align 1 %33, ptr align 1 %28, i64 %29, i1 false)
  %42 = load ptr, ptr %32, align 8
  %43 = getelementptr inbounds i8, ptr %42, i64 %29
  store ptr %43, ptr %32, align 8
  br label %_ZN4llvm11raw_ostreamlsENS_9StringRefE.exit

_ZN4llvm11raw_ostreamlsENS_9StringRefE.exit:      ; preds = %38, %40, %41
  %44 = phi ptr [ %.pre13, %38 ], [ %43, %41 ], [ %33, %40 ]
  %.0.i = phi ptr [ %39, %38 ], [ %.0.i.i5, %41 ], [ %.0.i.i5, %40 ]
  %45 = getelementptr inbounds nuw i8, ptr %.0.i, i64 24
  %46 = load ptr, ptr %45, align 8
  %47 = ptrtoint ptr %46 to i64
  %48 = ptrtoint ptr %44 to i64
  %49 = sub i64 %47, %48
  %50 = icmp ult i64 %49, 38
  br i1 %50, label %51, label %53

51:                                               ; preds = %_ZN4llvm11raw_ostreamlsENS_9StringRefE.exit
  %52 = tail call noundef nonnull align 8 dereferenceable(48) ptr @_ZN4llvm11raw_ostream5writeEPKcm(ptr noundef nonnull align 8 dereferenceable(48) %.0.i, ptr noundef nonnull @.str.746, i64 noundef 38) #22
  br label %_ZN4llvm11raw_ostreamlsEPKc.exit9

53:                                               ; preds = %_ZN4llvm11raw_ostreamlsENS_9StringRefE.exit
  %54 = getelementptr inbounds nuw i8, ptr %.0.i, i64 32
  tail call void @llvm.memcpy.p0.p0.i64(ptr noundef nonnull align 1 dereferenceable(38) %44, ptr noundef nonnull align 1 dereferenceable(38) @.str.746, i64 38, i1 false)
  %55 = load ptr, ptr %54, align 8
  %56 = getelementptr inbounds i8, ptr %55, i64 38
  store ptr %56, ptr %54, align 8
  br label %_ZN4llvm11raw_ostreamlsEPKc.exit9

_ZN4llvm11raw_ostreamlsEPKc.exit9:                ; preds = %51, %53
  %57 = load ptr, ptr %3, align 8
  %58 = load ptr, ptr %5, align 8
  %59 = ptrtoint ptr %57 to i64
  %60 = ptrtoint ptr %58 to i64
  %61 = sub i64 %59, %60
  %62 = icmp ult i64 %61, 11
  br i1 %62, label %63, label %65

63:                                               ; preds = %_ZN4llvm11raw_ostreamlsEPKc.exit9
  %64 = tail call noundef nonnull align 8 dereferenceable(48) ptr @_ZN4llvm11raw_ostream5writeEPKcm(ptr noundef nonnull align 8 dereferenceable(48) %1, ptr noundef nonnull @.str.467, i64 noundef 11) #22
  br label %_ZN4llvm11raw_ostreamlsEPKc.exit12

65:                                               ; preds = %_ZN4llvm11raw_ostreamlsEPKc.exit9
  tail call void @llvm.memcpy.p0.p0.i64(ptr noundef nonnull align 1 dereferenceable(11) %58, ptr noundef nonnull align 1 dereferenceable(11) @.str.467, i64 11, i1 false)
  %66 = load ptr, ptr %5, align 8
  %67 = getelementptr inbounds i8, ptr %66, i64 11
  store ptr %67, ptr %5, align 8
  br label %_ZN4llvm11raw_ostreamlsEPKc.exit12

_ZN4llvm11raw_ostreamlsEPKc.exit12:               ; preds = %63, %65
  ret void
}